# SymbolsHelper-Confirmed: 6.1.90 amd64
libKGlobalAccelD.so.0 libkglobalacceld0 #MINVER#
* Build-Depends-Package: libkglobalacceld-dev
 _ZGVZN9QMetaType21registerConverterImplI5QListI12QKeySequenceE9QIterableI13QMetaSequenceEEEbSt8functionIFbPKvPvEES_S_E10unregister@Base 6.0.5
 _ZGVZN9QMetaType21registerConverterImplI5QListI15QDBusObjectPathE9QIterableI13QMetaSequenceEEEbSt8functionIFbPKvPvEES_S_E10unregister@Base 6.0.5
 _ZGVZN9QMetaType21registerConverterImplI5QListI19KGlobalShortcutInfoE9QIterableI13QMetaSequenceEEEbSt8functionIFbPKvPvEES_S_E10unregister@Base 6.0.5
 _ZGVZN9QMetaType21registerConverterImplI5QListIS1_I7QStringEE9QIterableI13QMetaSequenceEEEbSt8functionIFbPKvPvEES_S_E10unregister@Base 6.0.5
 _ZGVZN9QMetaType21registerConverterImplI5QListIiE9QIterableI13QMetaSequenceEEEbSt8functionIFbPKvPvEES_S_E10unregister@Base 6.0.5
 _ZGVZN9QMetaType23registerMutableViewImplI5QListI12QKeySequenceE9QIterableI13QMetaSequenceEEEbSt8functionIFbPvS8_EES_S_E10unregister@Base 6.0.5
 _ZGVZN9QMetaType23registerMutableViewImplI5QListI15QDBusObjectPathE9QIterableI13QMetaSequenceEEEbSt8functionIFbPvS8_EES_S_E10unregister@Base 6.0.5
 _ZGVZN9QMetaType23registerMutableViewImplI5QListI19KGlobalShortcutInfoE9QIterableI13QMetaSequenceEEEbSt8functionIFbPvS8_EES_S_E10unregister@Base 6.0.5
 _ZGVZN9QMetaType23registerMutableViewImplI5QListIS1_I7QStringEE9QIterableI13QMetaSequenceEEEbSt8functionIFbPvS9_EES_S_E10unregister@Base 6.0.5
 _ZGVZN9QMetaType23registerMutableViewImplI5QListIiE9QIterableI13QMetaSequenceEEEbSt8functionIFbPvS7_EES_S_E10unregister@Base 6.0.5
 _ZN13KGlobalAccelD10doRegisterERK5QListI7QStringE@Base 6.0.5
 _ZN13KGlobalAccelD10unRegisterERK5QListI7QStringE@Base 6.0.5
 _ZN13KGlobalAccelD10unregisterERK7QStringS2_@Base 6.0.5
 _ZN13KGlobalAccelD11qt_metacallEN11QMetaObject4CallEiPPv@Base 6.0.5
 _ZN13KGlobalAccelD11qt_metacastEPKc@Base 6.0.5
 _ZN13KGlobalAccelD11setInactiveERK5QListI7QStringE@Base 6.0.5
 _ZN13KGlobalAccelD11setShortcutERK5QListI7QStringERKS0_IiEj@Base 6.0.5
 _ZN13KGlobalAccelD15setShortcutKeysERK5QListI7QStringERKS0_I12QKeySequenceEj@Base 6.0.5
 _ZN13KGlobalAccelD16staticMetaObjectE@Base 6.0.5
 _ZN13KGlobalAccelD18setForeignShortcutERK5QListI7QStringERKS0_IiE@Base 6.0.5
 _ZN13KGlobalAccelD20blockGlobalShortcutsEb@Base 6.0.5
 _ZN13KGlobalAccelD20yourShortcutsChangedERK5QListI7QStringERKS0_I12QKeySequenceE@Base 6.0.5
 _ZN13KGlobalAccelD22setForeignShortcutKeysERK5QListI7QStringERKS0_I12QKeySequenceE@Base 6.0.5
 _ZN13KGlobalAccelD22yourShortcutGotChangedERK5QListI7QStringERKS0_IiE@Base 6.0.5
 _ZN13KGlobalAccelD29activateGlobalShortcutContextERK7QStringS2_@Base 6.0.5
 _ZN13KGlobalAccelD4initEv@Base 6.0.5
 _ZN13KGlobalAccelDC1EP7QObject@Base 6.0.5
 _ZN13KGlobalAccelDC2EP7QObject@Base 6.0.5
 _ZN13KGlobalAccelDD0Ev@Base 6.0.5
 _ZN13KGlobalAccelDD1Ev@Base 6.0.5
 _ZN13KGlobalAccelDD2Ev@Base 6.0.5
 _ZN13QMetaSequence12MetaSequenceI5QListI12QKeySequenceEE5valueE@Base 6.0.5
 _ZN13QMetaSequence12MetaSequenceI5QListI15QDBusObjectPathEE5valueE@Base 6.0.5
 _ZN13QMetaSequence12MetaSequenceI5QListI19KGlobalShortcutInfoEE5valueE@Base 6.0.5
 _ZN13QMetaSequence12MetaSequenceI5QListIS1_I7QStringEEE5valueE@Base 6.0.5
 _ZN13QMetaSequence12MetaSequenceI5QListIiEE5valueE@Base 6.0.5
 _ZN21KGlobalAccelInterface10keyPressedEi@Base 6.0.5
 _ZN21KGlobalAccelInterface10ungrabKeysEv@Base 6.0.5
 _ZN21KGlobalAccelInterface11keyReleasedEi@Base 6.0.5
 _ZN21KGlobalAccelInterface11qt_metacallEN11QMetaObject4CallEiPPv@Base 6.0.5
 _ZN21KGlobalAccelInterface11qt_metacastEPKc@Base 6.0.5
 _ZN21KGlobalAccelInterface11setRegistryEP23GlobalShortcutsRegistry@Base 6.0.5
 _ZN21KGlobalAccelInterface13axisTriggeredEi@Base 6.0.90
 _ZN21KGlobalAccelInterface14pointerPressedE6QFlagsIN2Qt11MouseButtonEE@Base 6.0.90
 _ZN21KGlobalAccelInterface16staticMetaObjectE@Base 6.0.5
 _ZN21KGlobalAccelInterface22resetModifierOnlyStateEv@Base 6.1.90
 _ZN21KGlobalAccelInterface8grabKeysEv@Base 6.0.5
 _ZN21KGlobalAccelInterfaceC1EP7QObject@Base 6.0.5
 _ZN21KGlobalAccelInterfaceC2EP7QObject@Base 6.0.5
 _ZN21KGlobalAccelInterfaceD0Ev@Base 6.0.5
 _ZN21KGlobalAccelInterfaceD1Ev@Base 6.0.5
 _ZN21KGlobalAccelInterfaceD2Ev@Base 6.0.5
 _ZN23GlobalShortcutsRegistry10keyPressedEi@Base 6.0.5
 _ZN23GlobalShortcutsRegistry10processKeyEi@Base 6.0.90
 _ZN23GlobalShortcutsRegistry10ungrabKeysEv@Base 6.0.5
 _ZN23GlobalShortcutsRegistry11keyReleasedEi@Base 6.0.5
 _ZN23GlobalShortcutsRegistry11qt_metacallEN11QMetaObject4CallEiPPv@Base 6.0.5
 _ZN23GlobalShortcutsRegistry11qt_metacastEPKc@Base 6.0.5
 _ZN23GlobalShortcutsRegistry11registerKeyERK12QKeySequenceP14GlobalShortcut@Base 6.0.5
 _ZN23GlobalShortcutsRegistry11setDBusPathERK15QDBusObjectPath@Base 6.0.5
 _ZN23GlobalShortcutsRegistry12getComponentERK7QString@Base 6.0.5
 _ZN23GlobalShortcutsRegistry12loadSettingsEv@Base 6.0.5
 _ZN23GlobalShortcutsRegistry13axisTriggeredEi@Base 6.0.90
 _ZN23GlobalShortcutsRegistry13migrateConfigEv@Base 6.0.5
 _ZN23GlobalShortcutsRegistry13unregisterKeyERK12QKeySequenceP14GlobalShortcut@Base 6.0.5
 _ZN23GlobalShortcutsRegistry13writeSettingsEv@Base 6.0.5
 _ZN23GlobalShortcutsRegistry14pointerPressedE6QFlagsIN2Qt11MouseButtonEE@Base 6.0.90
 _ZN23GlobalShortcutsRegistry15createComponentERK7QStringS2_@Base 6.0.5
 _ZN23GlobalShortcutsRegistry15migrateKHotkeysEv@Base 6.0.5
 _ZN23GlobalShortcutsRegistry15refreshServicesEv@Base 6.0.5
 _ZN23GlobalShortcutsRegistry16staticMetaObjectE@Base 6.0.5
 _ZN23GlobalShortcutsRegistry17activateShortcutsEv@Base 6.0.5
 _ZN23GlobalShortcutsRegistry17registerComponentESt10unique_ptrI9ComponentPFvPS1_EE@Base 6.0.5
 _ZN23GlobalShortcutsRegistry19deactivateShortcutsEb@Base 6.0.5
 _ZN23GlobalShortcutsRegistry19unregisterComponentEP9Component@Base 6.0.5
 _ZN23GlobalShortcutsRegistry23detectAppsWithShortcutsEv@Base 6.0.5
 _ZN23GlobalShortcutsRegistry23scheduleRefreshServicesEv@Base 6.0.5
 _ZN23GlobalShortcutsRegistry28createServiceActionComponentE28QExplicitlySharedDataPointerI8KServiceE@Base 6.0.5
 _ZN23GlobalShortcutsRegistry28createServiceActionComponentERK7QString@Base 6.0.5
 _ZN23GlobalShortcutsRegistry4selfEv@Base 6.0.5
 _ZN23GlobalShortcutsRegistry5clearEv@Base 6.0.5
 _ZN23GlobalShortcutsRegistry8grabKeysEv@Base 6.0.5
 _ZN23GlobalShortcutsRegistryC1Ev@Base 6.0.5
 _ZN23GlobalShortcutsRegistryC2Ev@Base 6.0.5
 _ZN23GlobalShortcutsRegistryD0Ev@Base 6.0.5
 _ZN23GlobalShortcutsRegistryD1Ev@Base 6.0.5
 _ZN23GlobalShortcutsRegistryD2Ev@Base 6.0.5
 _ZN5Utils10reverseKeyERK12QKeySequence@Base 6.0.5
 _ZN5Utils14matchSequencesERK12QKeySequenceRK5QListIS0_E@Base 6.0.5
 _ZN5Utils17normalizeSequenceERK12QKeySequence@Base 6.0.90
 _ZN5Utils7cropKeyERK12QKeySequencei@Base 6.0.5
 (optional=templinst)_ZNK12KConfigGroup9readEntryI7QStringEET_PKcRKS2_@Base 6.0.5
 (optional=templinst)_ZNK12KConfigGroup9readEntryIiEET_PKcRKS1_@Base 6.0.5
 _ZNK13KGlobalAccelD10actionListERK12QKeySequence@Base 6.0.5
 _ZNK13KGlobalAccelD10metaObjectEv@Base 6.0.5
 _ZNK13KGlobalAccelD12getComponentERK7QString@Base 6.0.5
 _ZNK13KGlobalAccelD12shortcutKeysERK5QListI7QStringE@Base 6.0.5
 _ZNK13KGlobalAccelD13allComponentsEv@Base 6.0.5
 _ZNK13KGlobalAccelD15defaultShortcutERK5QListI7QStringE@Base 6.0.5
 _ZNK13KGlobalAccelD17allMainComponentsEv@Base 6.0.5
 _ZNK13KGlobalAccelD19defaultShortcutKeysERK5QListI7QStringE@Base 6.0.5
 _ZNK13KGlobalAccelD20globalShortcutsByKeyERK12QKeySequenceN12KGlobalAccel9MatchTypeE@Base 6.0.5
 _ZNK13KGlobalAccelD21scheduleWriteSettingsEv@Base 6.0.5
 _ZNK13KGlobalAccelD22allActionsForComponentERK5QListI7QStringE@Base 6.0.5
 _ZNK13KGlobalAccelD23getGlobalShortcutsByKeyEi@Base 6.0.5
 _ZNK13KGlobalAccelD23globalShortcutAvailableERK12QKeySequenceRK7QString@Base 6.0.5
 _ZNK13KGlobalAccelD25isGlobalShortcutAvailableEiRK7QString@Base 6.0.5
 _ZNK13KGlobalAccelD6actionEi@Base 6.0.5
 _ZNK13KGlobalAccelD8shortcutERK5QListI7QStringE@Base 6.0.5
 _ZNK21KGlobalAccelInterface10metaObjectEv@Base 6.0.5
 _ZNK23GlobalShortcutsRegistry10metaObjectEv@Base 6.0.5
 _ZNK23GlobalShortcutsRegistry16getShortcutByKeyERK12QKeySequenceN12KGlobalAccel9MatchTypeE@Base 6.0.5
 _ZNK23GlobalShortcutsRegistry17allComponentNamesEv@Base 6.0.5
 _ZNK23GlobalShortcutsRegistry17getShortcutsByKeyERK12QKeySequenceN12KGlobalAccel9MatchTypeE@Base 6.0.5
 _ZNK23GlobalShortcutsRegistry19componentsDbusPathsEv@Base 6.0.5
 _ZNK23GlobalShortcutsRegistry19isShortcutAvailableERK12QKeySequenceRK7QStringS5_@Base 6.0.5
 _ZNK23GlobalShortcutsRegistry8dbusPathEv@Base 6.0.5
 _ZTI12QDBusContext@Base 6.0.5
 _ZTI13KGlobalAccelD@Base 6.0.5
 _ZTI21KGlobalAccelInterface@Base 6.0.5
 _ZTI23GlobalShortcutsRegistry@Base 6.0.5
 _ZTIZN9QMetaType17registerConverterI5QListI12QKeySequenceE9QIterableI13QMetaSequenceEN9QtPrivate33QSequentialIterableConvertFunctorIS3_EEEEbT1_EUlPKvPvE_@Base 6.0.5
 _ZTIZN9QMetaType17registerConverterI5QListI15QDBusObjectPathE9QIterableI13QMetaSequenceEN9QtPrivate33QSequentialIterableConvertFunctorIS3_EEEEbT1_EUlPKvPvE_@Base 6.0.5
 _ZTIZN9QMetaType17registerConverterI5QListI19KGlobalShortcutInfoE9QIterableI13QMetaSequenceEN9QtPrivate33QSequentialIterableConvertFunctorIS3_EEEEbT1_EUlPKvPvE_@Base 6.0.5
 _ZTIZN9QMetaType17registerConverterI5QListIS1_I7QStringEE9QIterableI13QMetaSequenceEN9QtPrivate33QSequentialIterableConvertFunctorIS4_EEEEbT1_EUlPKvPvE_@Base 6.0.5
 _ZTIZN9QMetaType17registerConverterI5QListIiE9QIterableI13QMetaSequenceEN9QtPrivate33QSequentialIterableConvertFunctorIS2_EEEEbT1_EUlPKvPvE_@Base 6.0.5
 _ZTIZN9QMetaType19registerMutableViewI5QListI12QKeySequenceE9QIterableI13QMetaSequenceEN9QtPrivate37QSequentialIterableMutableViewFunctorIS3_EEEEbT1_EUlPvSB_E_@Base 6.0.5
 _ZTIZN9QMetaType19registerMutableViewI5QListI15QDBusObjectPathE9QIterableI13QMetaSequenceEN9QtPrivate37QSequentialIterableMutableViewFunctorIS3_EEEEbT1_EUlPvSB_E_@Base 6.0.5
 _ZTIZN9QMetaType19registerMutableViewI5QListI19KGlobalShortcutInfoE9QIterableI13QMetaSequenceEN9QtPrivate37QSequentialIterableMutableViewFunctorIS3_EEEEbT1_EUlPvSB_E_@Base 6.0.5
 _ZTIZN9QMetaType19registerMutableViewI5QListIS1_I7QStringEE9QIterableI13QMetaSequenceEN9QtPrivate37QSequentialIterableMutableViewFunctorIS4_EEEEbT1_EUlPvSC_E_@Base 6.0.5
 _ZTIZN9QMetaType19registerMutableViewI5QListIiE9QIterableI13QMetaSequenceEN9QtPrivate37QSequentialIterableMutableViewFunctorIS2_EEEEbT1_EUlPvSA_E_@Base 6.0.5
 _ZTS12QDBusContext@Base 6.0.5
 _ZTS13KGlobalAccelD@Base 6.0.5
 _ZTS21KGlobalAccelInterface@Base 6.0.5
 _ZTS23GlobalShortcutsRegistry@Base 6.0.5
 _ZTSZN9QMetaType17registerConverterI5QListI12QKeySequenceE9QIterableI13QMetaSequenceEN9QtPrivate33QSequentialIterableConvertFunctorIS3_EEEEbT1_EUlPKvPvE_@Base 6.0.5
 _ZTSZN9QMetaType17registerConverterI5QListI15QDBusObjectPathE9QIterableI13QMetaSequenceEN9QtPrivate33QSequentialIterableConvertFunctorIS3_EEEEbT1_EUlPKvPvE_@Base 6.0.5
 _ZTSZN9QMetaType17registerConverterI5QListI19KGlobalShortcutInfoE9QIterableI13QMetaSequenceEN9QtPrivate33QSequentialIterableConvertFunctorIS3_EEEEbT1_EUlPKvPvE_@Base 6.0.5
 _ZTSZN9QMetaType17registerConverterI5QListIS1_I7QStringEE9QIterableI13QMetaSequenceEN9QtPrivate33QSequentialIterableConvertFunctorIS4_EEEEbT1_EUlPKvPvE_@Base 6.0.5
 _ZTSZN9QMetaType17registerConverterI5QListIiE9QIterableI13QMetaSequenceEN9QtPrivate33QSequentialIterableConvertFunctorIS2_EEEEbT1_EUlPKvPvE_@Base 6.0.5
 _ZTSZN9QMetaType19registerMutableViewI5QListI12QKeySequenceE9QIterableI13QMetaSequenceEN9QtPrivate37QSequentialIterableMutableViewFunctorIS3_EEEEbT1_EUlPvSB_E_@Base 6.0.5
 _ZTSZN9QMetaType19registerMutableViewI5QListI15QDBusObjectPathE9QIterableI13QMetaSequenceEN9QtPrivate37QSequentialIterableMutableViewFunctorIS3_EEEEbT1_EUlPvSB_E_@Base 6.0.5
 _ZTSZN9QMetaType19registerMutableViewI5QListI19KGlobalShortcutInfoE9QIterableI13QMetaSequenceEN9QtPrivate37QSequentialIterableMutableViewFunctorIS3_EEEEbT1_EUlPvSB_E_@Base 6.0.5
 _ZTSZN9QMetaType19registerMutableViewI5QListIS1_I7QStringEE9QIterableI13QMetaSequenceEN9QtPrivate37QSequentialIterableMutableViewFunctorIS4_EEEEbT1_EUlPvSC_E_@Base 6.0.5
 _ZTSZN9QMetaType19registerMutableViewI5QListIiE9QIterableI13QMetaSequenceEN9QtPrivate37QSequentialIterableMutableViewFunctorIS2_EEEEbT1_EUlPvSA_E_@Base 6.0.5
 _ZTV13KGlobalAccelD@Base 6.0.5
 _ZTV21KGlobalAccelInterface@Base 6.0.5
 _ZTV23GlobalShortcutsRegistry@Base 6.0.5
 (optional=templinst)_ZZN9QMetaType21registerConverterImplI5QListI12QKeySequenceE9QIterableI13QMetaSequenceEEEbSt8functionIFbPKvPvEES_S_E10unregister@Base 6.0.5
 (optional=templinst)_ZZN9QMetaType21registerConverterImplI5QListI15QDBusObjectPathE9QIterableI13QMetaSequenceEEEbSt8functionIFbPKvPvEES_S_E10unregister@Base 6.0.5
 (optional=templinst)_ZZN9QMetaType21registerConverterImplI5QListI19KGlobalShortcutInfoE9QIterableI13QMetaSequenceEEEbSt8functionIFbPKvPvEES_S_E10unregister@Base 6.0.5
 (optional=templinst)_ZZN9QMetaType21registerConverterImplI5QListIS1_I7QStringEE9QIterableI13QMetaSequenceEEEbSt8functionIFbPKvPvEES_S_E10unregister@Base 6.0.5
 (optional=templinst)_ZZN9QMetaType21registerConverterImplI5QListIiE9QIterableI13QMetaSequenceEEEbSt8functionIFbPKvPvEES_S_E10unregister@Base 6.0.5
 (optional=templinst)_ZZN9QMetaType23registerMutableViewImplI5QListI12QKeySequenceE9QIterableI13QMetaSequenceEEEbSt8functionIFbPvS8_EES_S_E10unregister@Base 6.0.5
 (optional=templinst)_ZZN9QMetaType23registerMutableViewImplI5QListI15QDBusObjectPathE9QIterableI13QMetaSequenceEEEbSt8functionIFbPvS8_EES_S_E10unregister@Base 6.0.5
 (optional=templinst)_ZZN9QMetaType23registerMutableViewImplI5QListI19KGlobalShortcutInfoE9QIterableI13QMetaSequenceEEEbSt8functionIFbPvS8_EES_S_E10unregister@Base 6.0.5
 (optional=templinst)_ZZN9QMetaType23registerMutableViewImplI5QListIS1_I7QStringEE9QIterableI13QMetaSequenceEEEbSt8functionIFbPvS9_EES_S_E10unregister@Base 6.0.5
 (optional=templinst)_ZZN9QMetaType23registerMutableViewImplI5QListIiE9QIterableI13QMetaSequenceEEEbSt8functionIFbPvS7_EES_S_E10unregister@Base 6.0.5
